target datalayout = "e-m:e-p270:32:32-p271:32:32-p272:64:64-i64:64-i128:128-f80:128-n8:16:32:64-S128"
target triple = "x86_64-pc-linux-gnu"

%"class.cv::ximgproc::EstimateCovariance" = type { i32, i32, i32, i32, %"class.std::vector" }
%"class.std::vector" = type { %"struct.std::_Vector_base" }
%"struct.std::_Vector_base" = type { %"struct.std::_Vector_base<cv::ximgproc::EstimateCovariance::Combination, std::allocator<cv::ximgproc::EstimateCovariance::Combination>>::_Vector_impl" }
%"struct.std::_Vector_base<cv::ximgproc::EstimateCovariance::Combination, std::allocator<cv::ximgproc::EstimateCovariance::Combination>>::_Vector_impl" = type { %"struct.std::_Vector_base<cv::ximgproc::EstimateCovariance::Combination, std::allocator<cv::ximgproc::EstimateCovariance::Combination>>::_Vector_impl_data" }
%"struct.std::_Vector_base<cv::ximgproc::EstimateCovariance::Combination, std::allocator<cv::ximgproc::EstimateCovariance::Combination>>::_Vector_impl_data" = type { ptr, ptr, ptr }

; Function Attrs: mustprogress nounwind uwtable
define linkonce_odr hidden void @_ZNSt15__new_allocatorIN2cv8ximgproc18EstimateCovariance11CombinationEEC2Ev(ptr noundef nonnull align 1 dereferenceable(1) %0) unnamed_addr #4 comdat align 2 {
  %2 = alloca ptr, align 8
  store ptr %0, ptr %2, align 8, !tbaa !122
  ret void
}

; Function Attrs: mustprogress nounwind uwtable
define linkonce_odr hidden void @_ZNSt12_Vector_baseIN2cv8ximgproc18EstimateCovariance11CombinationESaIS3_EE17_Vector_impl_dataC2Ev(ptr noundef nonnull align 8 dereferenceable(24) %0) unnamed_addr #4 comdat align 2 {
  %2 = alloca ptr, align 8
  store ptr %0, ptr %2, align 8, !tbaa !119
  %3 = load ptr, ptr %2, align 8
  %4 = getelementptr inbounds nuw %"struct.std::_Vector_base<cv::ximgproc::EstimateCovariance::Combination, std::allocator<cv::ximgproc::EstimateCovariance::Combination>>::_Vector_impl_data", ptr %3, i32 0, i32 0
  store ptr null, ptr %4, align 8, !tbaa !19
  %5 = getelementptr inbounds nuw %"struct.std::_Vector_base<cv::ximgproc::EstimateCovariance::Combination, std::allocator<cv::ximgproc::EstimateCovariance::Combination>>::_Vector_impl_data", ptr %3, i32 0, i32 1
  store ptr null, ptr %5, align 8, !tbaa !20
  %6 = getelementptr inbounds nuw %"struct.std::_Vector_base<cv::ximgproc::EstimateCovariance::Combination, std::allocator<cv::ximgproc::EstimateCovariance::Combination>>::_Vector_impl_data", ptr %3, i32 0, i32 2
  store ptr null, ptr %6, align 8, !tbaa !121
  ret void
}

; Function Attrs: mustprogress nounwind uwtable
define linkonce_odr hidden void @_ZNSaIN2cv8ximgproc18EstimateCovariance11CombinationEEC2Ev(ptr noundef nonnull align 1 dereferenceable(1) %0) unnamed_addr #4 comdat align 2 {
  %2 = alloca ptr, align 8
  store ptr %0, ptr %2, align 8, !tbaa !117
  %3 = load ptr, ptr %2, align 8
  call void @_ZNSt15__new_allocatorIN2cv8ximgproc18EstimateCovariance11CombinationEEC2Ev(ptr noundef nonnull align 1 dereferenceable(1) %3) #3
  ret void
}

; Function Attrs: mustprogress nounwind uwtable
define linkonce_odr hidden void @_ZNSt12_Vector_baseIN2cv8ximgproc18EstimateCovariance11CombinationESaIS3_EE12_Vector_implC2Ev(ptr noundef nonnull align 8 dereferenceable(24) %0) unnamed_addr #4 comdat align 2 {
  %2 = alloca ptr, align 8
  store ptr %0, ptr %2, align 8, !tbaa !115
  %3 = load ptr, ptr %2, align 8
  call void @_ZNSaIN2cv8ximgproc18EstimateCovariance11CombinationEEC2Ev(ptr noundef nonnull align 1 dereferenceable(1) %3) #3
  call void @_ZNSt12_Vector_baseIN2cv8ximgproc18EstimateCovariance11CombinationESaIS3_EE17_Vector_impl_dataC2Ev(ptr noundef nonnull align 8 dereferenceable(24) %3) #3
  ret void
}

; Function Attrs: mustprogress nounwind uwtable
define linkonce_odr hidden void @_ZNSt12_Vector_baseIN2cv8ximgproc18EstimateCovariance11CombinationESaIS3_EEC2Ev(ptr noundef nonnull align 8 dereferenceable(24) %0) unnamed_addr #4 comdat align 2 {
  %2 = alloca ptr, align 8
  store ptr %0, ptr %2, align 8, !tbaa !113
  %3 = load ptr, ptr %2, align 8
  %4 = getelementptr inbounds nuw %"struct.std::_Vector_base", ptr %3, i32 0, i32 0
  call void @_ZNSt12_Vector_baseIN2cv8ximgproc18EstimateCovariance11CombinationESaIS3_EE12_Vector_implC2Ev(ptr noundef nonnull align 8 dereferenceable(24) %4) #3
  ret void
}

; Function Attrs: mustprogress nounwind uwtable
define linkonce_odr hidden void @_ZNSt6vectorIN2cv8ximgproc18EstimateCovariance11CombinationESaIS3_EEC2Ev(ptr noundef nonnull align 8 dereferenceable(24) %0) unnamed_addr #4 comdat align 2 {
  %2 = alloca ptr, align 8
  store ptr %0, ptr %2, align 8, !tbaa !17
  %3 = load ptr, ptr %2, align 8
  call void @_ZNSt12_Vector_baseIN2cv8ximgproc18EstimateCovariance11CombinationESaIS3_EEC2Ev(ptr noundef nonnull align 8 dereferenceable(24) %3) #3
  ret void
}

; Function Attrs: mustprogress nounwind uwtable
define hidden void @_ZN2cv8ximgproc18EstimateCovarianceC2Eii(ptr noundef nonnull align 8 dereferenceable(40) %0, i32 noundef %1, i32 noundef %2) unnamed_addr #4 align 2 {
  %4 = alloca ptr, align 8
  %5 = alloca i32, align 4
  %6 = alloca i32, align 4
  store ptr %0, ptr %4, align 8, !tbaa !3
  store i32 %1, ptr %5, align 4, !tbaa !8
  store i32 %2, ptr %6, align 4, !tbaa !8
  %7 = load ptr, ptr %4, align 8
  %8 = getelementptr inbounds nuw %"class.cv::ximgproc::EstimateCovariance", ptr %7, i32 0, i32 4
  call void @_ZNSt6vectorIN2cv8ximgproc18EstimateCovariance11CombinationESaIS3_EEC2Ev(ptr noundef nonnull align 8 dereferenceable(24) %8) #3
  %9 = load i32, ptr %5, align 4, !tbaa !8
  %10 = getelementptr inbounds nuw %"class.cv::ximgproc::EstimateCovariance", ptr %7, i32 0, i32 2
  store i32 %9, ptr %10, align 8, !tbaa !10
  %11 = load i32, ptr %6, align 4, !tbaa !8
  %12 = getelementptr inbounds nuw %"class.cv::ximgproc::EstimateCovariance", ptr %7, i32 0, i32 3
  store i32 %11, ptr %12, align 4, !tbaa !16
  ret void
}